; Function Attrs: mustprogress uwtable
define noundef zeroext i1 @_ZN4pkpy2VM5py_gtEPNS_8PyObjectES2_(ptr noundef nonnull align 8 dereferenceable(264913) %0, ptr noundef %1, ptr noundef %2) local_unnamed_addr #3 align 2 {
  %4 = alloca ptr, align 8
  %5 = alloca ptr, align 8
  %6 = getelementptr inbounds i8, ptr %0, i64 264328
  %7 = ptrtoint ptr %1 to i64
  %8 = and i64 %7, 3
  %9 = icmp eq i64 %8, 2
  %10 = getelementptr inbounds i8, ptr %1, i64 10
  %11 = select i1 %9, ptr @_ZN4pkpy2VM6tp_intE, ptr %10
  %.sroa.0.0.copyload.i.i = load i16, ptr %11, align 2
  %12 = sext i16 %.sroa.0.0.copyload.i.i to i64
  %13 = load ptr, ptr %6, align 8
  %14 = getelementptr inbounds %"struct.pkpy::PyTypeInfo", ptr %13, i64 %12, i32 17
  %15 = load ptr, ptr %14, align 8
  %.not = icmp eq ptr %15, null
  br i1 %.not, label %18, label %16

16:                                               ; preds = %3
  %17 = tail call noundef ptr %15(ptr noundef nonnull %0, ptr noundef %1, ptr noundef %2)
  br label %33

18:                                               ; preds = %3
  %.sroa.02.0.copyload = load i16, ptr @_ZN4pkpy6__gt__E, align 2
  %19 = call noundef ptr @_ZN4pkpy2VM18get_unbound_methodEPNS_8PyObjectENS_7StrNameEPS2_bb(ptr noundef nonnull align 8 dereferenceable(264913) %0, ptr noundef %1, i16 %.sroa.02.0.copyload, ptr noundef nonnull %4, i1 noundef zeroext false, i1 noundef zeroext false)
  %.not14 = icmp eq ptr %19, null
  br i1 %.not14, label %30, label %20

20:                                               ; preds = %18
  %21 = load ptr, ptr %4, align 8
  %22 = getelementptr inbounds i8, ptr %0, i64 264296
  %23 = load ptr, ptr %22, align 8
  %24 = getelementptr inbounds i8, ptr %23, i64 8
  store ptr %24, ptr %22, align 8
  store ptr %19, ptr %23, align 8
  %25 = load ptr, ptr %22, align 8
  %26 = getelementptr inbounds i8, ptr %25, i64 8
  store ptr %26, ptr %22, align 8
  store ptr %21, ptr %25, align 8
  %27 = load ptr, ptr %22, align 8
  %28 = getelementptr inbounds i8, ptr %27, i64 8
  store ptr %28, ptr %22, align 8
  store ptr %2, ptr %27, align 8
  %29 = call noundef ptr @_ZN4pkpy2VM10vectorcallEiib(ptr noundef nonnull align 8 dereferenceable(264913) %0, i32 noundef 1, i32 noundef 0, i1 noundef zeroext false)
  br label %33

30:                                               ; preds = %18
  %31 = getelementptr inbounds i8, ptr %0, i64 264544
  %32 = load ptr, ptr %31, align 8
  br label %33

33:                                               ; preds = %20, %30, %16
  %.0 = phi ptr [ %17, %16 ], [ %29, %20 ], [ %32, %30 ]
  %34 = getelementptr inbounds i8, ptr %0, i64 264544
  %35 = load ptr, ptr %34, align 8
  %36 = icmp eq ptr %.0, %35
  br i1 %36, label %37, label %54

37:                                               ; preds = %33
  %.sroa.0.0.copyload = load i16, ptr @_ZN4pkpy6__lt__E, align 2
  %38 = call noundef ptr @_ZN4pkpy2VM18get_unbound_methodEPNS_8PyObjectENS_7StrNameEPS2_bb(ptr noundef nonnull align 8 dereferenceable(264913) %0, ptr noundef %2, i16 %.sroa.0.0.copyload, ptr noundef nonnull %5, i1 noundef zeroext false, i1 noundef zeroext false)
  %.not15 = icmp eq ptr %38, null
  br i1 %.not15, label %49, label %39

39:                                               ; preds = %37
  %40 = load ptr, ptr %5, align 8
  %41 = getelementptr inbounds i8, ptr %0, i64 264296
  %42 = load ptr, ptr %41, align 8
  %43 = getelementptr inbounds i8, ptr %42, i64 8
  store ptr %43, ptr %41, align 8
  store ptr %38, ptr %42, align 8
  %44 = load ptr, ptr %41, align 8
  %45 = getelementptr inbounds i8, ptr %44, i64 8
  store ptr %45, ptr %41, align 8
  store ptr %40, ptr %44, align 8
  %46 = load ptr, ptr %41, align 8
  %47 = getelementptr inbounds i8, ptr %46, i64 8
  store ptr %47, ptr %41, align 8
  store ptr %1, ptr %46, align 8
  %48 = call noundef ptr @_ZN4pkpy2VM10vectorcallEiib(ptr noundef nonnull align 8 dereferenceable(264913) %0, i32 noundef 1, i32 noundef 0, i1 noundef zeroext false)
  br label %50

49:                                               ; preds = %37
  call void @_ZN4pkpy2VM14BinaryOptErrorEPKcPNS_8PyObjectES4_(ptr noundef nonnull align 8 dereferenceable(264913) %0, ptr noundef nonnull @.str.6, ptr noundef %1, ptr noundef %2)
  br label %50

50:                                               ; preds = %49, %39
  %.1 = phi ptr [ %48, %39 ], [ %.0, %49 ]
  %51 = load ptr, ptr %34, align 8
  %52 = icmp eq ptr %.1, %51
  br i1 %52, label %53, label %54

53:                                               ; preds = %50
  call void @_ZN4pkpy2VM14BinaryOptErrorEPKcPNS_8PyObjectES4_(ptr noundef nonnull align 8 dereferenceable(264913) %0, ptr noundef nonnull @.str.6, ptr noundef %1, ptr noundef %2)
  br label %54

54:                                               ; preds = %50, %53, %33
  %.2 = phi ptr [ %.1, %53 ], [ %.1, %50 ], [ %.0, %33 ]
  %55 = getelementptr inbounds i8, ptr %0, i64 264528
  %56 = load ptr, ptr %55, align 8
  %57 = icmp eq ptr %.2, %56
  ret i1 %57
}